target datalayout = "e-m:e-p270:32:32-p271:32:32-p272:64:64-i64:64-i128:128-f80:128-n8:16:32:64-S128"
target triple = "x86_64-pc-linux-gnu"

%struct.IpvideoContext = type { ptr, %struct.HpelDSPContext, ptr, ptr, ptr, ptr, ptr, i32, ptr, i32, i32, %struct.GetByteContext, %struct.GetByteContext, ptr, i32, i32, i32, [256 x i32] }
%struct.HpelDSPContext = type { [4 x [4 x ptr]], [4 x [4 x ptr]], [4 x [4 x ptr]], [4 x ptr] }
%struct.GetByteContext = type { ptr, ptr, ptr }

; Function Attrs: alwaysinline nounwind uwtable
define internal i32 @bytestream_get_byte(ptr noundef %0) #4 {
  %2 = alloca ptr, align 8
  store ptr %0, ptr %2, align 8, !tbaa !94
  %3 = load ptr, ptr %2, align 8, !tbaa !94
  %4 = load ptr, ptr %3, align 8, !tbaa !59
  %5 = getelementptr inbounds i8, ptr %4, i64 1
  store ptr %5, ptr %3, align 8, !tbaa !59
  %6 = load ptr, ptr %2, align 8, !tbaa !94
  %7 = load ptr, ptr %6, align 8, !tbaa !59
  %8 = getelementptr inbounds i8, ptr %7, i64 -1
  %9 = getelementptr inbounds i8, ptr %8, i64 0
  %10 = load i8, ptr %9, align 1, !tbaa !62
  %11 = zext i8 %10 to i32
  ret i32 %11
}

; Function Attrs: alwaysinline nounwind uwtable
define internal i32 @bytestream2_get_byteu(ptr noundef %0) #4 {
  %2 = alloca ptr, align 8
  store ptr %0, ptr %2, align 8, !tbaa !67
  %3 = load ptr, ptr %2, align 8, !tbaa !67
  %4 = getelementptr inbounds nuw %struct.GetByteContext, ptr %3, i32 0, i32 0
  %5 = call i32 @bytestream_get_byte(ptr noundef %4)
  ret i32 %5
}

; Function Attrs: alwaysinline nounwind uwtable
define internal i32 @bytestream2_get_byte(ptr noundef %0) #4 {
  %2 = alloca i32, align 4
  %3 = alloca ptr, align 8
  store ptr %0, ptr %3, align 8, !tbaa !67
  %4 = load ptr, ptr %3, align 8, !tbaa !67
  %5 = getelementptr inbounds nuw %struct.GetByteContext, ptr %4, i32 0, i32 1
  %6 = load ptr, ptr %5, align 8, !tbaa !71
  %7 = load ptr, ptr %3, align 8, !tbaa !67
  %8 = getelementptr inbounds nuw %struct.GetByteContext, ptr %7, i32 0, i32 0
  %9 = load ptr, ptr %8, align 8, !tbaa !69
  %10 = ptrtoint ptr %6 to i64
  %11 = ptrtoint ptr %9 to i64
  %12 = sub i64 %10, %11
  %13 = icmp slt i64 %12, 1
  br i1 %13, label %14, label %20

14:                                               ; preds = %1
  %15 = load ptr, ptr %3, align 8, !tbaa !67
  %16 = getelementptr inbounds nuw %struct.GetByteContext, ptr %15, i32 0, i32 1
  %17 = load ptr, ptr %16, align 8, !tbaa !71
  %18 = load ptr, ptr %3, align 8, !tbaa !67
  %19 = getelementptr inbounds nuw %struct.GetByteContext, ptr %18, i32 0, i32 0
  store ptr %17, ptr %19, align 8, !tbaa !69
  store i32 0, ptr %2, align 4
  br label %23

20:                                               ; preds = %1
  %21 = load ptr, ptr %3, align 8, !tbaa !67
  %22 = call i32 @bytestream2_get_byteu(ptr noundef %21)
  store i32 %22, ptr %2, align 4
  br label %23

23:                                               ; preds = %20, %14
  %24 = load i32, ptr %2, align 4
  ret i32 %24
}

; Function Attrs: nounwind uwtable
define internal i32 @ipvideo_decode_block_opcode_0xF(ptr noundef %0, ptr noundef %1) #1 {
  %3 = alloca ptr, align 8
  %4 = alloca ptr, align 8
  %5 = alloca i32, align 4
  %6 = alloca i32, align 4
  %7 = alloca [2 x i8], align 1
  store ptr %0, ptr %3, align 8, !tbaa !29
  store ptr %1, ptr %4, align 8, !tbaa !53
  call void @llvm.lifetime.start.p0(i64 4, ptr %5) #11
  call void @llvm.lifetime.start.p0(i64 4, ptr %6) #11
  call void @llvm.lifetime.start.p0(i64 2, ptr %7) #11
  %8 = load ptr, ptr %3, align 8, !tbaa !29
  %9 = getelementptr inbounds nuw %struct.IpvideoContext, ptr %8, i32 0, i32 11
  %10 = call i32 @bytestream2_get_byte(ptr noundef %9)
  %11 = trunc i32 %10 to i8
  %12 = getelementptr inbounds [2 x i8], ptr %7, i64 0, i64 0
  store i8 %11, ptr %12, align 1, !tbaa !62
  %13 = load ptr, ptr %3, align 8, !tbaa !29
  %14 = getelementptr inbounds nuw %struct.IpvideoContext, ptr %13, i32 0, i32 11
  %15 = call i32 @bytestream2_get_byte(ptr noundef %14)
  %16 = trunc i32 %15 to i8
  %17 = getelementptr inbounds [2 x i8], ptr %7, i64 0, i64 1
  store i8 %16, ptr %17, align 1, !tbaa !62
  store i32 0, ptr %6, align 4, !tbaa !61
  br label %18

18:                                               ; preds = %59, %2
  %19 = load i32, ptr %6, align 4, !tbaa !61
  %20 = icmp slt i32 %19, 8
  br i1 %20, label %21, label %62

21:                                               ; preds = %18
  store i32 0, ptr %5, align 4, !tbaa !61
  br label %22

22:                                               ; preds = %47, %21
  %23 = load i32, ptr %5, align 4, !tbaa !61
  %24 = icmp slt i32 %23, 8
  br i1 %24, label %25, label %50

25:                                               ; preds = %22
  %26 = load i32, ptr %6, align 4, !tbaa !61
  %27 = and i32 %26, 1
  %28 = sext i32 %27 to i64
  %29 = getelementptr inbounds [2 x i8], ptr %7, i64 0, i64 %28
  %30 = load i8, ptr %29, align 1, !tbaa !62
  %31 = load ptr, ptr %3, align 8, !tbaa !29
  %32 = getelementptr inbounds nuw %struct.IpvideoContext, ptr %31, i32 0, i32 13
  %33 = load ptr, ptr %32, align 8, !tbaa !77
  %34 = getelementptr inbounds nuw i8, ptr %33, i32 1
  store ptr %34, ptr %32, align 8, !tbaa !77
  store i8 %30, ptr %33, align 1, !tbaa !62
  %35 = load i32, ptr %6, align 4, !tbaa !61
  %36 = and i32 %35, 1
  %37 = icmp ne i32 %36, 0
  %38 = xor i1 %37, true
  %39 = zext i1 %38 to i32
  %40 = sext i32 %39 to i64
  %41 = getelementptr inbounds [2 x i8], ptr %7, i64 0, i64 %40
  %42 = load i8, ptr %41, align 1, !tbaa !62
  %43 = load ptr, ptr %3, align 8, !tbaa !29
  %44 = getelementptr inbounds nuw %struct.IpvideoContext, ptr %43, i32 0, i32 13
  %45 = load ptr, ptr %44, align 8, !tbaa !77
  %46 = getelementptr inbounds nuw i8, ptr %45, i32 1
  store ptr %46, ptr %44, align 8, !tbaa !77
  store i8 %42, ptr %45, align 1, !tbaa !62
  br label %47

47:                                               ; preds = %25
  %48 = load i32, ptr %5, align 4, !tbaa !61
  %49 = add nsw i32 %48, 2
  store i32 %49, ptr %5, align 4, !tbaa !61
  br label %22, !llvm.loop !133

50:                                               ; preds = %22
  %51 = load ptr, ptr %3, align 8, !tbaa !29
  %52 = getelementptr inbounds nuw %struct.IpvideoContext, ptr %51, i32 0, i32 14
  %53 = load i32, ptr %52, align 8, !tbaa !73
  %54 = load ptr, ptr %3, align 8, !tbaa !29
  %55 = getelementptr inbounds nuw %struct.IpvideoContext, ptr %54, i32 0, i32 13
  %56 = load ptr, ptr %55, align 8, !tbaa !77
  %57 = sext i32 %53 to i64
  %58 = getelementptr inbounds i8, ptr %56, i64 %57
  store ptr %58, ptr %55, align 8, !tbaa !77
  br label %59

59:                                               ; preds = %50
  %60 = load i32, ptr %6, align 4, !tbaa !61
  %61 = add nsw i32 %60, 1
  store i32 %61, ptr %6, align 4, !tbaa !61
  br label %18, !llvm.loop !134

62:                                               ; preds = %18
  call void @llvm.lifetime.end.p0(i64 2, ptr %7) #11
  call void @llvm.lifetime.end.p0(i64 4, ptr %6) #11
  call void @llvm.lifetime.end.p0(i64 4, ptr %5) #11
  ret i32 0
}