; Function Attrs: nofree norecurse nosync nounwind memory(readwrite, inaccessiblemem: none) uwtable
define internal noundef i32 @ipvideo_decode_block_opcode_0xF(ptr noundef captures(none) %0, ptr readnone captures(none) %1) #6 {
  %3 = alloca [2 x i8], align 1
  call void @llvm.lifetime.start.p0(i64 2, ptr nonnull %3) #9
  %4 = getelementptr inbounds nuw i8, ptr %0, i64 488
  %5 = getelementptr inbounds nuw i8, ptr %0, i64 496
  %6 = load ptr, ptr %5, align 8, !tbaa !60
  %7 = load ptr, ptr %4, align 8, !tbaa !58
  %8 = ptrtoint ptr %6 to i64
  %9 = ptrtoint ptr %7 to i64
  %10 = sub i64 %8, %9
  %11 = icmp slt i64 %10, 1
  br i1 %11, label %bytestream2_get_byte.exit, label %12

12:                                               ; preds = %2
  %13 = getelementptr inbounds nuw i8, ptr %7, i64 1
  store ptr %13, ptr %4, align 8, !tbaa !53
  %14 = load i8, ptr %7, align 1, !tbaa !54
  %.pre = ptrtoint ptr %13 to i64
  br label %bytestream2_get_byte.exit

bytestream2_get_byte.exit:                        ; preds = %2, %12
  %.pre-phi = phi i64 [ %.pre, %12 ], [ %8, %2 ]
  %15 = phi ptr [ %13, %12 ], [ %6, %2 ]
  %.0.i = phi i8 [ %14, %12 ], [ 0, %2 ]
  store i8 %.0.i, ptr %3, align 1, !tbaa !54
  %16 = sub i64 %8, %.pre-phi
  %17 = icmp slt i64 %16, 1
  br i1 %17, label %18, label %19

18:                                               ; preds = %bytestream2_get_byte.exit
  store ptr %6, ptr %4, align 8, !tbaa !58
  br label %bytestream2_get_byte.exit13

19:                                               ; preds = %bytestream2_get_byte.exit
  %20 = getelementptr inbounds nuw i8, ptr %15, i64 1
  store ptr %20, ptr %4, align 8, !tbaa !53
  %21 = load i8, ptr %15, align 1, !tbaa !54
  br label %bytestream2_get_byte.exit13

bytestream2_get_byte.exit13:                      ; preds = %18, %19
  %.0.i12 = phi i8 [ 0, %18 ], [ %21, %19 ]
  %22 = getelementptr inbounds nuw i8, ptr %3, i64 1
  store i8 %.0.i12, ptr %22, align 1, !tbaa !54
  %23 = getelementptr inbounds nuw i8, ptr %0, i64 536
  %24 = getelementptr inbounds nuw i8, ptr %0, i64 544
  br label %.preheader

.preheader:                                       ; preds = %bytestream2_get_byte.exit13, %40
  %.015 = phi i32 [ 0, %bytestream2_get_byte.exit13 ], [ %45, %40 ]
  %25 = and i32 %.015, 1
  %26 = zext nneg i32 %25 to i64
  %27 = getelementptr inbounds nuw [2 x i8], ptr %3, i64 0, i64 %26
  %28 = load i8, ptr %27, align 1, !tbaa !54
  %29 = xor i32 %25, 1
  %30 = zext nneg i32 %29 to i64
  %31 = getelementptr inbounds nuw [2 x i8], ptr %3, i64 0, i64 %30
  %32 = load i8, ptr %31, align 1, !tbaa !54
  br label %33

33:                                               ; preds = %.preheader, %33
  %.01114 = phi i32 [ 0, %.preheader ], [ %38, %33 ]
  %34 = load ptr, ptr %23, align 8, !tbaa !67
  %35 = getelementptr inbounds nuw i8, ptr %34, i64 1
  store ptr %35, ptr %23, align 8, !tbaa !67
  store i8 %28, ptr %34, align 1, !tbaa !54
  %36 = load ptr, ptr %23, align 8, !tbaa !67
  %37 = getelementptr inbounds nuw i8, ptr %36, i64 1
  store ptr %37, ptr %23, align 8, !tbaa !67
  store i8 %32, ptr %36, align 1, !tbaa !54
  %38 = add nuw nsw i32 %.01114, 2
  %39 = icmp samesign ult i32 %.01114, 6
  br i1 %39, label %33, label %40, !llvm.loop !114

40:                                               ; preds = %33
  %41 = load i32, ptr %24, align 8, !tbaa !64
  %42 = load ptr, ptr %23, align 8, !tbaa !67
  %43 = sext i32 %41 to i64
  %44 = getelementptr inbounds i8, ptr %42, i64 %43
  store ptr %44, ptr %23, align 8, !tbaa !67
  %45 = add nuw nsw i32 %.015, 1
  %exitcond.not = icmp eq i32 %45, 8
  br i1 %exitcond.not, label %46, label %.preheader, !llvm.loop !115

46:                                               ; preds = %40
  call void @llvm.lifetime.end.p0(i64 2, ptr nonnull %3) #9
  ret i32 0
}